target datalayout = "e-m:e-p270:32:32-p271:32:32-p272:64:64-i64:64-i128:128-f80:128-n8:16:32:64-S128"
target triple = "x86_64-pc-linux-gnu"

%struct.anon.5 = type { i64, ptr, ptr }

; Function Attrs: nounwind uwtable
define dso_local i32 @ziplistPairsConvertAndValidateIntegrity(ptr noundef %0, i64 noundef %1, ptr noundef %2) #0 {
  %4 = alloca ptr, align 8
  %5 = alloca i64, align 8
  %6 = alloca ptr, align 8
  %7 = alloca %struct.anon.5, align 8
  %8 = alloca i32, align 4
  store ptr %0, ptr %4, align 8, !tbaa !9
  store i64 %1, ptr %5, align 8, !tbaa !56
  store ptr %2, ptr %6, align 8, !tbaa !221
  call void @llvm.lifetime.start.p0(i64 24, ptr %7) #15
  %9 = getelementptr inbounds nuw %struct.anon.5, ptr %7, i32 0, i32 0
  store i64 0, ptr %9, align 8, !tbaa !222
  %10 = getelementptr inbounds nuw %struct.anon.5, ptr %7, i32 0, i32 1
  store ptr null, ptr %10, align 8, !tbaa !224
  %11 = getelementptr inbounds nuw %struct.anon.5, ptr %7, i32 0, i32 2
  %12 = load ptr, ptr %6, align 8, !tbaa !221
  store ptr %12, ptr %11, align 8, !tbaa !225
  call void @llvm.lifetime.start.p0(i64 4, ptr %8) #15
  %13 = load ptr, ptr %4, align 8, !tbaa !9
  %14 = load i64, ptr %5, align 8, !tbaa !56
  %15 = call i32 @ziplistValidateIntegrity(ptr noundef %13, i64 noundef %14, i32 noundef 1, ptr noundef @_ziplistPairsEntryConvertAndValidate, ptr noundef %7)
  store i32 %15, ptr %8, align 4, !tbaa !5
  %16 = getelementptr inbounds nuw %struct.anon.5, ptr %7, i32 0, i32 0
  %17 = load i64, ptr %16, align 8, !tbaa !222
  %18 = and i64 %17, 1
  %19 = icmp ne i64 %18, 0
  br i1 %19, label %20, label %21

20:                                               ; preds = %3
  store i32 0, ptr %8, align 4, !tbaa !5
  br label %21

21:                                               ; preds = %20, %3
  %22 = getelementptr inbounds nuw %struct.anon.5, ptr %7, i32 0, i32 1
  %23 = load ptr, ptr %22, align 8, !tbaa !224
  %24 = icmp ne ptr %23, null
  br i1 %24, label %25, label %28

25:                                               ; preds = %21
  %26 = getelementptr inbounds nuw %struct.anon.5, ptr %7, i32 0, i32 1
  %27 = load ptr, ptr %26, align 8, !tbaa !224
  call void @dictRelease(ptr noundef %27)
  br label %28

28:                                               ; preds = %25, %21
  %29 = load i32, ptr %8, align 4, !tbaa !5
  call void @llvm.lifetime.end.p0(i64 4, ptr %8) #15
  call void @llvm.lifetime.end.p0(i64 24, ptr %7) #15
  ret i32 %29
}