; Function Attrs: nounwind uwtable
define dso_local i32 @ziplistPairsConvertAndValidateIntegrity(ptr noundef %0, i64 noundef %1, ptr noundef %2) local_unnamed_addr #0 {
  %4 = alloca %struct.anon.5, align 8
  call void @llvm.lifetime.start.p0(i64 24, ptr nonnull %4) #23
  %5 = getelementptr inbounds nuw i8, ptr %4, i64 8
  %6 = getelementptr inbounds nuw i8, ptr %4, i64 16
  call void @llvm.memset.p0.i64(ptr noundef nonnull align 8 dereferenceable(16) %4, i8 0, i64 16, i1 false)
  store ptr %2, ptr %6, align 8, !tbaa !180
  %7 = call i32 @ziplistValidateIntegrity(ptr noundef %0, i64 noundef %1, i32 noundef 1, ptr noundef nonnull @_ziplistPairsEntryConvertAndValidate, ptr noundef nonnull %4) #23
  %8 = load i64, ptr %4, align 8, !tbaa !182
  %9 = load ptr, ptr %5, align 8, !tbaa !183
  %.not3 = icmp eq ptr %9, null
  br i1 %.not3, label %11, label %10

10:                                               ; preds = %3
  call void @dictRelease(ptr noundef nonnull %9) #23
  br label %11

11:                                               ; preds = %10, %3
  %12 = and i64 %8, 1
  %.not = icmp eq i64 %12, 0
  %spec.store.select = select i1 %.not, i32 %7, i32 0
  call void @llvm.lifetime.end.p0(i64 24, ptr nonnull %4) #23
  ret i32 %spec.store.select
}